target datalayout = "e-m:e-p270:32:32-p271:32:32-p272:64:64-i64:64-i128:128-f80:128-n8:16:32:64-S128"
target triple = "x86_64-pc-linux-gnu"

%struct.slurm_conf_t = type { i64, ptr, i16, ptr, ptr, ptr, ptr, ptr, i16, ptr, ptr, ptr, ptr, ptr, ptr, ptr, i16, ptr, ptr, ptr, ptr, i16, ptr, ptr, ptr, i64, ptr, ptr, ptr, ptr, i16, ptr, ptr, i16, i32, ptr, i32, ptr, i32, i32, ptr, ptr, i64, i64, ptr, i16, i16, ptr, i32, i32, ptr, i32, ptr, i32, i16, i16, i16, ptr, i16, i16, ptr, ptr, i32, i16, i16, ptr, i32, i16, ptr, ptr, ptr, ptr, i16, ptr, ptr, ptr, ptr, i32, ptr, ptr, ptr, ptr, i16, i16, ptr, i32, i32, i32, i16, i16, ptr, ptr, i16, ptr, ptr, i32, i32, i32, i32, i32, i64, i32, i32, i16, ptr, ptr, i32, ptr, ptr, ptr, i16, i32, ptr, ptr, i16, ptr, ptr, i32, i16, ptr, ptr, ptr, ptr, i32, i32, i16, i16, i32, ptr, i16, ptr, i32, i32, i32, i32, i32, i32, ptr, i16, ptr, ptr, i32, i16, ptr, i32, i16, i16, ptr, ptr, ptr, i16, ptr, ptr, ptr, ptr, i16, i16, ptr, i16, ptr, i16, ptr, i16, ptr, i16, ptr, ptr, ptr, ptr, i16, ptr, ptr, ptr, i32, ptr, i32, ptr, ptr, i16, ptr, ptr, i32, i16, ptr, ptr, i16, i16, ptr, i16, ptr, ptr, ptr, i32, ptr, i16, i16, ptr, ptr, ptr, ptr, ptr, ptr, ptr, ptr, i16, i32, i16, ptr, ptr, ptr, ptr, i32, ptr, ptr, ptr, i16, ptr, ptr, ptr, i16, ptr, i16, ptr, i16, i16, ptr }
%struct.slurm_step_id_msg = type { i64, i32, i32, i32 }

@plugin_inited = internal global i32 0, align 4
@slurm_conf = external global %struct.slurm_conf_t, align 8
@.str.25 = private unnamed_addr constant [53 x i8] c"jobacct_gather_set_mem_limit: jobid:%u mem_limit:%lu\00", align 1
@jobacct_mem_limit = internal global i64 0, align 8
@jobacct_vmem_limit = internal global i64 0, align 8
@jobacct_step_id = internal global { i64, i32, i32, i32, [4 x i8] } { i64 0, i32 0, i32 -2, i32 0, [4 x i8] zeroinitializer }, align 8

; Function Attrs: nounwind uwtable
define dso_local i32 @jobacct_gather_set_mem_limit(ptr noundef %0, i64 noundef %1) #0 {
  %3 = alloca i32, align 4
  %4 = alloca ptr, align 8
  %5 = alloca i64, align 8
  store ptr %0, ptr %4, align 8
  store i64 %1, ptr %5, align 8
  %6 = load i32, ptr @plugin_inited, align 4
  %7 = icmp eq i32 %6, 1
  br i1 %7, label %8, label %9

8:                                                ; preds = %2
  store i32 0, ptr %3, align 4
  br label %36

9:                                                ; preds = %2
  %10 = load ptr, ptr %4, align 8
  %11 = getelementptr inbounds nuw %struct.slurm_step_id_msg, ptr %10, i32 0, i32 1
  %12 = load i32, ptr %11, align 8
  %13 = icmp eq i32 %12, 0
  br i1 %13, label %17, label %14

14:                                               ; preds = %9
  %15 = load i64, ptr %5, align 8
  %16 = icmp eq i64 %15, 0
  br i1 %16, label %17, label %23

17:                                               ; preds = %14, %9
  %18 = load ptr, ptr %4, align 8
  %19 = getelementptr inbounds nuw %struct.slurm_step_id_msg, ptr %18, i32 0, i32 1
  %20 = load i32, ptr %19, align 8
  %21 = load i64, ptr %5, align 8
  %22 = call i32 (ptr, ...) @error(ptr noundef @.str.25, i32 noundef %20, i64 noundef %21)
  store i32 -1, ptr %3, align 4
  br label %36

23:                                               ; preds = %14
  %24 = load ptr, ptr %4, align 8
  call void @llvm.memcpy.p0.p0.i64(ptr align 8 @jobacct_step_id, ptr align 8 %24, i64 24, i1 false)
  %25 = load i64, ptr %5, align 8
  %26 = mul i64 %25, 1048576
  store i64 %26, ptr @jobacct_mem_limit, align 8
  %27 = load i64, ptr @jobacct_mem_limit, align 8
  store i64 %27, ptr @jobacct_vmem_limit, align 8
  %28 = load i16, ptr getelementptr inbounds nuw (%struct.slurm_conf_t, ptr @slurm_conf, i32 0, i32 223), align 8
  %29 = zext i16 %28 to i32
  %30 = sitofp i32 %29 to double
  %31 = fdiv double %30, 1.000000e+02
  %32 = load i64, ptr @jobacct_vmem_limit, align 8
  %33 = uitofp i64 %32 to double
  %34 = fmul double %33, %31
  %35 = fptoui double %34 to i64
  store i64 %35, ptr @jobacct_vmem_limit, align 8
  store i32 0, ptr %3, align 4
  br label %36

36:                                               ; preds = %23, %17, %8
  %37 = load i32, ptr %3, align 4
  ret i32 %37
}