; Function Attrs: nounwind uwtable
define dso_local range(i32 -1, 1) i32 @jobacct_gather_set_mem_limit(ptr noundef readonly captures(none) %0, i64 noundef %1) local_unnamed_addr #0 {
  %3 = load i32, ptr @plugin_inited, align 4
  %4 = icmp eq i32 %3, 1
  br i1 %4, label %20, label %5

5:                                                ; preds = %2
  %6 = getelementptr inbounds nuw i8, ptr %0, i64 8
  %7 = load i32, ptr %6, align 8
  %8 = icmp eq i32 %7, 0
  %9 = icmp eq i64 %1, 0
  %or.cond = or i1 %9, %8
  br i1 %or.cond, label %10, label %12

10:                                               ; preds = %5
  %11 = tail call i32 (ptr, ...) @error(ptr noundef nonnull @.str.25, i32 noundef %7, i64 noundef %1) #10
  br label %20

12:                                               ; preds = %5
  tail call void @llvm.memcpy.p0.p0.i64(ptr noundef nonnull align 8 dereferenceable(24) @jobacct_step_id, ptr noundef nonnull align 8 dereferenceable(24) %0, i64 24, i1 false)
  %13 = shl i64 %1, 20
  store i64 %13, ptr @jobacct_mem_limit, align 8
  %14 = load i16, ptr getelementptr inbounds nuw (i8, ptr @slurm_conf, i64 1520), align 8
  %15 = uitofp i16 %14 to double
  %16 = fdiv double %15, 1.000000e+02
  %17 = uitofp i64 %13 to double
  %18 = fmul double %16, %17
  %19 = fptoui double %18 to i64
  store i64 %19, ptr @jobacct_vmem_limit, align 8
  br label %20

20:                                               ; preds = %2, %12, %10
  %.0 = phi i32 [ -1, %10 ], [ 0, %12 ], [ 0, %2 ]
  ret i32 %.0
}